; Function Attrs: mustprogress uwtable
define hidden void @_ZN3sat10aig_finderC2ERNS_6solverE(ptr noundef nonnull align 8 dereferenceable(160) initializes((0, 8)) %0, ptr noundef nonnull align 8 dereferenceable(4264) %1) unnamed_addr #3 align 2 {
  store ptr %1, ptr %0, align 8, !tbaa !3
  %3 = getelementptr inbounds nuw i8, ptr %0, i64 8
  %4 = getelementptr inbounds nuw i8, ptr %1, i64 2356
  tail call void @_ZN3sat3bigC1ER10random_gen(ptr noundef nonnull align 8 dereferenceable(80) %3, ptr noundef nonnull align 4 dereferenceable(4) %4)
  %5 = getelementptr inbounds nuw i8, ptr %0, i64 88
  tail call void @llvm.memset.p0.i64(ptr noundef nonnull align 8 dereferenceable(72) %5, i8 0, i64 72, i1 false)
  ret void
}